; Function Attrs: null_pointer_is_valid sspstrong uwtable
define internal i32 @netdfs_dissect_dfs_SetInfo_request(ptr noundef %0, i32 noundef %1, ptr noundef %2, ptr noundef %3, ptr noundef initializes((72, 80)) %4, ptr noundef %5) #0 {
  %7 = alloca ptr, align 8
  %8 = getelementptr inbounds nuw i8, ptr %4, i64 72
  store ptr @.str.314, ptr %8, align 8
  call void @llvm.lifetime.start.p0(i64 8, ptr nonnull %7) #4
  %9 = load i32, ptr @hf_netdfs_dfs_SetInfo_dfs_entry_path, align 4
  %10 = call i32 @dissect_ndr_cvstring(ptr noundef %0, i32 noundef %1, ptr noundef %2, ptr noundef %3, ptr noundef %4, ptr noundef %5, i32 noundef 2, i32 noundef %9, i1 noundef zeroext false, ptr noundef nonnull %7)
  %11 = load ptr, ptr %7, align 8
  call void (ptr, ptr, ...) @proto_item_append_text(ptr noundef %3, ptr noundef nonnull @.str.261, ptr noundef %11)
  call void @llvm.lifetime.end.p0(i64 8, ptr nonnull %7) #4
  %12 = call i32 @dissect_deferred_pointers(ptr noundef %2, ptr noundef %0, i32 noundef %10, ptr noundef %4, ptr noundef %5)
  %13 = load i32, ptr @hf_netdfs_dfs_SetInfo_servername, align 4
  %14 = call i32 @dissect_ndr_toplevel_pointer(ptr noundef %0, i32 noundef %12, ptr noundef %2, ptr noundef %3, ptr noundef %4, ptr noundef %5, ptr noundef nonnull @netdfs_dissect_element_dfs_SetInfo_servername_, i32 noundef 2, ptr noundef nonnull @.str.339, i32 noundef %13)
  %15 = call i32 @dissect_deferred_pointers(ptr noundef %2, ptr noundef %0, i32 noundef %14, ptr noundef %4, ptr noundef %5)
  %16 = load i32, ptr @hf_netdfs_dfs_SetInfo_sharename, align 4
  %17 = call i32 @dissect_ndr_toplevel_pointer(ptr noundef %0, i32 noundef %15, ptr noundef %2, ptr noundef %3, ptr noundef %4, ptr noundef %5, ptr noundef nonnull @netdfs_dissect_element_dfs_SetInfo_sharename_, i32 noundef 2, ptr noundef nonnull @.str.340, i32 noundef %16)
  %18 = call i32 @dissect_deferred_pointers(ptr noundef %2, ptr noundef %0, i32 noundef %17, ptr noundef %4, ptr noundef %5)
  %19 = load i32, ptr @hf_netdfs_dfs_SetInfo_level, align 4
  %20 = call i32 @PIDL_dissect_uint32(ptr noundef %0, i32 noundef %18, ptr noundef %2, ptr noundef %3, ptr noundef %4, ptr noundef %5, i32 noundef %19, i32 noundef 0)
  %21 = call i32 @dissect_deferred_pointers(ptr noundef %2, ptr noundef %0, i32 noundef %20, ptr noundef %4, ptr noundef %5)
  %22 = load i32, ptr @hf_netdfs_dfs_SetInfo_info, align 4
  %23 = call i32 @dissect_ndr_toplevel_pointer(ptr noundef %0, i32 noundef %21, ptr noundef %2, ptr noundef %3, ptr noundef %4, ptr noundef %5, ptr noundef nonnull @netdfs_dissect_element_dfs_SetInfo_info_, i32 noundef 1, ptr noundef nonnull @.str.341, i32 noundef %22)
  %24 = call i32 @dissect_deferred_pointers(ptr noundef %2, ptr noundef %0, i32 noundef %23, ptr noundef %4, ptr noundef %5)
  ret i32 %24
}